target datalayout = "e-m:e-p270:32:32-p271:32:32-p272:64:64-i64:64-i128:128-f80:128-n8:16:32:64-S128"
target triple = "x86_64-pc-linux-gnu"

%struct.SDL_AtomicInt = type { i32 }
%struct.SDL_HIDAPI_Device = type { ptr, ptr, ptr, ptr, i16, i16, i16, ptr, %struct.SDL_GUID, i32, i32, i32, i32, i16, i16, i8, i32, i32, i32, ptr, ptr, ptr, ptr, %struct.SDL_AtomicInt, i32, ptr, i8, i8, i8, ptr, i32, ptr, ptr }
%struct.SDL_GUID = type { [16 x i8] }
%struct.SDL_Joystick = type { i32, ptr, ptr, ptr, %struct.SDL_GUID, i16, i64, i8, i8, i32, ptr, i32, ptr, i32, ptr, i32, ptr, i32, ptr, i32, i32, ptr, i16, i16, i64, i64, i16, i16, i64, i64, i8, i8, i8, i64, i8, i32, i32, i32, i8, i32, ptr, i32, ptr, [3 x [3 x float]], i64, ptr, ptr, i32, i32, ptr }

; Function Attrs: nounwind uwtable
define internal void @HIDAPI_UpdateJoystickSerial(ptr noundef %0) #0 {
  %2 = alloca ptr, align 8
  %3 = alloca i32, align 4
  %4 = alloca ptr, align 8
  store ptr %0, ptr %2, align 8
  call void @llvm.lifetime.start.p0(i64 4, ptr %3) #7
  call void @SDL_AssertJoysticksLocked()
  store i32 0, ptr %3, align 4
  br label %5

5:                                                ; preds = %38, %1
  %6 = load i32, ptr %3, align 4
  %7 = load ptr, ptr %2, align 8
  %8 = getelementptr inbounds nuw %struct.SDL_HIDAPI_Device, ptr %7, i32 0, i32 24
  %9 = load i32, ptr %8, align 4
  %10 = icmp slt i32 %6, %9
  br i1 %10, label %11, label %41

11:                                               ; preds = %5
  call void @llvm.lifetime.start.p0(i64 8, ptr %4) #7
  %12 = load ptr, ptr %2, align 8
  %13 = getelementptr inbounds nuw %struct.SDL_HIDAPI_Device, ptr %12, i32 0, i32 25
  %14 = load ptr, ptr %13, align 8
  %15 = load i32, ptr %3, align 4
  %16 = sext i32 %15 to i64
  %17 = getelementptr inbounds i32, ptr %14, i64 %16
  %18 = load i32, ptr %17, align 4
  %19 = call ptr @SDL_GetJoystickFromID_REAL(i32 noundef %18)
  store ptr %19, ptr %4, align 8
  %20 = load ptr, ptr %4, align 8
  %21 = icmp ne ptr %20, null
  br i1 %21, label %22, label %37

22:                                               ; preds = %11
  %23 = load ptr, ptr %2, align 8
  %24 = getelementptr inbounds nuw %struct.SDL_HIDAPI_Device, ptr %23, i32 0, i32 7
  %25 = load ptr, ptr %24, align 8
  %26 = icmp ne ptr %25, null
  br i1 %26, label %27, label %37

27:                                               ; preds = %22
  %28 = load ptr, ptr %4, align 8
  %29 = getelementptr inbounds nuw %struct.SDL_Joystick, ptr %28, i32 0, i32 3
  %30 = load ptr, ptr %29, align 8
  call void @SDL_free_REAL(ptr noundef %30)
  %31 = load ptr, ptr %2, align 8
  %32 = getelementptr inbounds nuw %struct.SDL_HIDAPI_Device, ptr %31, i32 0, i32 7
  %33 = load ptr, ptr %32, align 8
  %34 = call noalias ptr @SDL_strdup_REAL(ptr noundef %33)
  %35 = load ptr, ptr %4, align 8
  %36 = getelementptr inbounds nuw %struct.SDL_Joystick, ptr %35, i32 0, i32 3
  store ptr %34, ptr %36, align 8
  br label %37

37:                                               ; preds = %27, %22, %11
  call void @llvm.lifetime.end.p0(i64 8, ptr %4) #7
  br label %38

38:                                               ; preds = %37
  %39 = load i32, ptr %3, align 4
  %40 = add nsw i32 %39, 1
  store i32 %40, ptr %3, align 4
  br label %5, !llvm.loop !5

41:                                               ; preds = %5
  call void @llvm.lifetime.end.p0(i64 4, ptr %3) #7
  ret void
}

; Function Attrs: nounwind uwtable
define hidden void @HIDAPI_SetDeviceSerial(ptr noundef %0, ptr noundef %1) #0 {
  %3 = alloca ptr, align 8
  %4 = alloca ptr, align 8
  store ptr %0, ptr %3, align 8
  store ptr %1, ptr %4, align 8
  %5 = load ptr, ptr %4, align 8
  %6 = icmp ne ptr %5, null
  br i1 %6, label %7, label %33

7:                                                ; preds = %2
  %8 = load ptr, ptr %4, align 8
  %9 = load i8, ptr %8, align 1
  %10 = sext i8 %9 to i32
  %11 = icmp ne i32 %10, 0
  br i1 %11, label %12, label %33

12:                                               ; preds = %7
  %13 = load ptr, ptr %3, align 8
  %14 = getelementptr inbounds nuw %struct.SDL_HIDAPI_Device, ptr %13, i32 0, i32 7
  %15 = load ptr, ptr %14, align 8
  %16 = icmp ne ptr %15, null
  br i1 %16, label %17, label %24

17:                                               ; preds = %12
  %18 = load ptr, ptr %4, align 8
  %19 = load ptr, ptr %3, align 8
  %20 = getelementptr inbounds nuw %struct.SDL_HIDAPI_Device, ptr %19, i32 0, i32 7
  %21 = load ptr, ptr %20, align 8
  %22 = call i32 @SDL_strcmp_REAL(ptr noundef %18, ptr noundef %21)
  %23 = icmp ne i32 %22, 0
  br i1 %23, label %24, label %33

24:                                               ; preds = %17, %12
  %25 = load ptr, ptr %3, align 8
  %26 = getelementptr inbounds nuw %struct.SDL_HIDAPI_Device, ptr %25, i32 0, i32 7
  %27 = load ptr, ptr %26, align 8
  call void @SDL_free_REAL(ptr noundef %27)
  %28 = load ptr, ptr %4, align 8
  %29 = call noalias ptr @SDL_strdup_REAL(ptr noundef %28)
  %30 = load ptr, ptr %3, align 8
  %31 = getelementptr inbounds nuw %struct.SDL_HIDAPI_Device, ptr %30, i32 0, i32 7
  store ptr %29, ptr %31, align 8
  %32 = load ptr, ptr %3, align 8
  call void @HIDAPI_UpdateJoystickSerial(ptr noundef %32)
  br label %33

33:                                               ; preds = %24, %17, %7, %2
  ret void
}