; Function Attrs: nounwind uwtable
define hidden void @HIDAPI_SetDeviceSerial(ptr noundef captures(none) %0, ptr noundef %1) local_unnamed_addr #0 {
  %.not = icmp eq ptr %1, null
  br i1 %.not, label %HIDAPI_UpdateJoystickSerial.exit, label %3

3:                                                ; preds = %2
  %4 = load i8, ptr %1, align 1
  %.not10 = icmp eq i8 %4, 0
  br i1 %.not10, label %HIDAPI_UpdateJoystickSerial.exit, label %5

5:                                                ; preds = %3
  %6 = getelementptr inbounds nuw i8, ptr %0, i64 40
  %7 = load ptr, ptr %6, align 8
  %.not11 = icmp eq ptr %7, null
  br i1 %.not11, label %10, label %8

8:                                                ; preds = %5
  %9 = tail call i32 @SDL_strcmp_REAL(ptr noundef nonnull %1, ptr noundef nonnull %7) #9
  %.not12 = icmp eq i32 %9, 0
  br i1 %.not12, label %HIDAPI_UpdateJoystickSerial.exit, label %._crit_edge

._crit_edge:                                      ; preds = %8
  %.pre = load ptr, ptr %6, align 8
  br label %10

10:                                               ; preds = %._crit_edge, %5
  %11 = phi ptr [ %.pre, %._crit_edge ], [ null, %5 ]
  tail call void @SDL_free_REAL(ptr noundef %11) #9
  %12 = tail call noalias ptr @SDL_strdup_REAL(ptr noundef nonnull %1) #9
  store ptr %12, ptr %6, align 8
  tail call void @SDL_AssertJoysticksLocked() #9
  %13 = getelementptr inbounds nuw i8, ptr %0, i64 140
  %14 = load i32, ptr %13, align 4
  %15 = icmp sgt i32 %14, 0
  br i1 %15, label %.lr.ph.i, label %HIDAPI_UpdateJoystickSerial.exit

.lr.ph.i:                                         ; preds = %10
  %16 = getelementptr inbounds nuw i8, ptr %0, i64 144
  br label %17

17:                                               ; preds = %29, %.lr.ph.i
  %indvars.iv.i = phi i64 [ 0, %.lr.ph.i ], [ %indvars.iv.next.i, %29 ]
  %18 = load ptr, ptr %16, align 8
  %19 = getelementptr inbounds nuw i32, ptr %18, i64 %indvars.iv.i
  %20 = load i32, ptr %19, align 4
  %21 = tail call ptr @SDL_GetJoystickFromID_REAL(i32 noundef %20) #9
  %.not.i = icmp eq ptr %21, null
  br i1 %.not.i, label %29, label %22

22:                                               ; preds = %17
  %23 = load ptr, ptr %6, align 8
  %.not10.i = icmp eq ptr %23, null
  br i1 %.not10.i, label %29, label %24

24:                                               ; preds = %22
  %25 = getelementptr inbounds nuw i8, ptr %21, i64 24
  %26 = load ptr, ptr %25, align 8
  tail call void @SDL_free_REAL(ptr noundef %26) #9
  %27 = load ptr, ptr %6, align 8
  %28 = tail call noalias ptr @SDL_strdup_REAL(ptr noundef %27) #9
  store ptr %28, ptr %25, align 8
  br label %29

29:                                               ; preds = %24, %22, %17
  %indvars.iv.next.i = add nuw nsw i64 %indvars.iv.i, 1
  %30 = load i32, ptr %13, align 4
  %31 = sext i32 %30 to i64
  %32 = icmp slt i64 %indvars.iv.next.i, %31
  br i1 %32, label %17, label %HIDAPI_UpdateJoystickSerial.exit, !llvm.loop !5

HIDAPI_UpdateJoystickSerial.exit:                 ; preds = %29, %10, %8, %3, %2
  ret void
}